; ModuleID = '16/665.c'
source_filename = "16/665.c"
target datalayout = "e-m:e-p270:32:32-p271:32:32-p272:64:64-i64:64-f80:128-n8:16:32:64-S128"
target triple = "x86_64-pc-linux-gnu"

@.str = private unnamed_addr constant [3 x i8] c"%d\00", align 1
@.str.1 = private unnamed_addr constant [5 x i8] c"%d%d\00", align 1
@.str.2 = private unnamed_addr constant [7 x i8] c"%d%d%d\00", align 1
@.str.3 = private unnamed_addr constant [9 x i8] c"%d%d%d%d\00", align 1
@.str.4 = private unnamed_addr constant [6 x i8] c"00001\00", align 1

; Function Attrs: noinline nounwind uwtable
define dso_local i32 @main() #0 {
  %1 = alloca i32, align 4
  %2 = alloca i32, align 4
  %3 = alloca i32, align 4
  %4 = alloca i32, align 4
  %5 = alloca i32, align 4
  %6 = alloca i32, align 4
  %7 = alloca i32, align 4
  store i32 0, i32* %1, align 4
  %8 = call i32 (i8*, ...) @__isoc99_scanf(i8* getelementptr inbounds ([3 x i8], [3 x i8]* @.str, i64 0, i64 0), i32* %2)
  %9 = load i32, i32* %2, align 4
  %10 = icmp sle i32 %9, 9
  br i1 %10, label %11, label %14

11:                                               ; preds = %0
  %12 = load i32, i32* %2, align 4
  %13 = call i32 (i8*, ...) @printf(i8* getelementptr inbounds ([3 x i8], [3 x i8]* @.str, i64 0, i64 0), i32 %12)
  br label %78

14:                                               ; preds = %0
  %15 = load i32, i32* %2, align 4
  %16 = srem i32 %15, 10
  store i32 %16, i32* %3, align 4
  %17 = load i32, i32* %2, align 4
  %18 = icmp sle i32 %17, 99
  br i1 %18, label %19, label %27

19:                                               ; preds = %14
  %20 = load i32, i32* %2, align 4
  %21 = load i32, i32* %3, align 4
  %22 = sub nsw i32 %20, %21
  %23 = sdiv i32 %22, 10
  store i32 %23, i32* %4, align 4
  %24 = load i32, i32* %3, align 4
  %25 = load i32, i32* %4, align 4
  %26 = call i32 (i8*, ...) @printf(i8* getelementptr inbounds ([5 x i8], [5 x i8]* @.str.1, i64 0, i64 0), i32 %24, i32 %25)
  br label %77

27:                                               ; preds = %14
  %28 = load i32, i32* %2, align 4
  %29 = load i32, i32* %3, align 4
  %30 = sub nsw i32 %28, %29
  %31 = sdiv i32 %30, 10
  %32 = srem i32 %31, 10
  store i32 %32, i32* %4, align 4
  %33 = load i32, i32* %3, align 4
  %34 = load i32, i32* %4, align 4
  %35 = mul nsw i32 10, %34
  %36 = add nsw i32 %33, %35
  store i32 %36, i32* %7, align 4
  %37 = load i32, i32* %2, align 4
  %38 = icmp sle i32 %37, 999
  br i1 %38, label %39, label %48

39:                                               ; preds = %27
  %40 = load i32, i32* %2, align 4
  %41 = load i32, i32* %7, align 4
  %42 = sub nsw i32 %40, %41
  %43 = sdiv i32 %42, 100
  store i32 %43, i32* %5, align 4
  %44 = load i32, i32* %3, align 4
  %45 = load i32, i32* %4, align 4
  %46 = load i32, i32* %5, align 4
  %47 = call i32 (i8*, ...) @printf(i8* getelementptr inbounds ([7 x i8], [7 x i8]* @.str.2, i64 0, i64 0), i32 %44, i32 %45, i32 %46)
  br label %76

48:                                               ; preds = %27
  %49 = load i32, i32* %2, align 4
  %50 = load i32, i32* %7, align 4
  %51 = sub nsw i32 %49, %50
  %52 = sdiv i32 %51, 100
  %53 = srem i32 %52, 10
  store i32 %53, i32* %5, align 4
  %54 = load i32, i32* %3, align 4
  %55 = load i32, i32* %4, align 4
  %56 = mul nsw i32 10, %55
  %57 = add nsw i32 %54, %56
  %58 = load i32, i32* %5, align 4
  %59 = mul nsw i32 100, %58
  %60 = add nsw i32 %57, %59
  store i32 %60, i32* %7, align 4
  %61 = load i32, i32* %2, align 4
  %62 = icmp sle i32 %61, 9999
  br i1 %62, label %63, label %73

63:                                               ; preds = %48
  %64 = load i32, i32* %2, align 4
  %65 = load i32, i32* %7, align 4
  %66 = sub nsw i32 %64, %65
  %67 = sdiv i32 %66, 1000
  store i32 %67, i32* %6, align 4
  %68 = load i32, i32* %3, align 4
  %69 = load i32, i32* %4, align 4
  %70 = load i32, i32* %5, align 4
  %71 = load i32, i32* %6, align 4
  %72 = call i32 (i8*, ...) @printf(i8* getelementptr inbounds ([9 x i8], [9 x i8]* @.str.3, i64 0, i64 0), i32 %68, i32 %69, i32 %70, i32 %71)
  br label %75

73:                                               ; preds = %48
  %74 = call i32 (i8*, ...) @printf(i8* getelementptr inbounds ([6 x i8], [6 x i8]* @.str.4, i64 0, i64 0))
  br label %75

75:                                               ; preds = %73, %63
  br label %76

76:                                               ; preds = %75, %39
  br label %77

77:                                               ; preds = %76, %19
  br label %78

78:                                               ; preds = %77, %11
  ret i32 0
}

declare dso_local i32 @__isoc99_scanf(i8*, ...) #1

declare dso_local i32 @printf(i8*, ...) #1


!llvm.module.flags = !{!0}
!llvm.ident = !{!1}

!0 = !{i32 1, !"wchar_size", i32 4}
!1 = !{!"clang version 10.0.0-4ubuntu1 "}
